; Function Attrs: mustprogress nofree norecurse nosync nounwind memory(readwrite, inaccessiblemem: none) uwtable
define hidden void @_ZN3sat14anf_simplifier12set_relevantERKNS_6clauseE(ptr nocapture noundef nonnull readonly align 8 dereferenceable(96) %this, ptr noundef nonnull readonly align 4 dereferenceable(20) %c) local_unnamed_addr #10 align 2 {
entry:
  %m_size.i = getelementptr inbounds i8, ptr %c, i64 4
  %0 = load i32, ptr %m_size.i, align 4
  %idx.ext.i = zext i32 %0 to i64
  %add.ptr.i.idx = shl nuw nsw i64 %idx.ext.i, 2
  %1 = getelementptr i8, ptr %c, i64 %add.ptr.i.idx
  %add.ptr.i.ptr = getelementptr i8, ptr %1, i64 20
  %cmp.not5 = icmp eq i32 %0, 0
  br i1 %cmp.not5, label %for.end, label %for.body.lr.ph

for.body.lr.ph:                                   ; preds = %entry
  %m_lits.i.ptr = getelementptr inbounds i8, ptr %c, i64 20
  %m_relevant.i.i = getelementptr inbounds i8, ptr %this, i64 24
  br label %for.body

for.body:                                         ; preds = %for.body.lr.ph, %for.body
  %__begin1.06 = phi ptr [ %m_lits.i.ptr, %for.body.lr.ph ], [ %incdec.ptr, %for.body ]
  %l.sroa.0.0.copyload = load i32, ptr %__begin1.06, align 4
  %shr.i.i = lshr i32 %l.sroa.0.0.copyload, 1
  %2 = load ptr, ptr %m_relevant.i.i, align 8
  %idxprom.i.i.i = zext nneg i32 %shr.i.i to i64
  %arrayidx.i.i.i = getelementptr inbounds i8, ptr %2, i64 %idxprom.i.i.i
  store i8 1, ptr %arrayidx.i.i.i, align 1
  %incdec.ptr = getelementptr inbounds i8, ptr %__begin1.06, i64 4
  %cmp.not = icmp eq ptr %incdec.ptr, %add.ptr.i.ptr
  br i1 %cmp.not, label %for.end, label %for.body

for.end:                                          ; preds = %for.body, %entry
  ret void
}